; Function Attrs: nounwind uwtable
define dso_local noundef ptr @RegisterSnapshot(ptr noundef %0) local_unnamed_addr #0 {
  %2 = icmp eq ptr %0, null
  br i1 %2, label %6, label %3

3:                                                ; preds = %1
  %4 = load ptr, ptr @CurrentResourceOwner, align 8
  %5 = tail call ptr @RegisterSnapshotOnOwner(ptr noundef nonnull %0, ptr noundef %4)
  br label %6

6:                                                ; preds = %1, %3
  %.0 = phi ptr [ %5, %3 ], [ null, %1 ]
  ret ptr %.0
}